; Function Attrs: mustprogress nofree nounwind uwtable
define hidden noundef i64 @_ZN4lean9get_mtimeERKNSt7__cxx1112basic_stringIcSt11char_traitsIcESaIcEEE(ptr noundef nonnull readonly align 8 captures(none) dereferenceable(32) %0) local_unnamed_addr #10 {
  %2 = alloca %struct.stat, align 8
  call void @llvm.lifetime.start.p0(i64 144, ptr nonnull %2) #24
  %3 = load ptr, ptr %0, align 8, !tbaa !3
  %4 = call i32 @stat(ptr noundef %3, ptr noundef nonnull %2) #24
  %.not = icmp eq i32 %4, 0
  %5 = getelementptr inbounds nuw i8, ptr %2, i64 88
  %6 = load i64, ptr %5, align 8
  %.0 = select i1 %.not, i64 %6, i64 -1
  call void @llvm.lifetime.end.p0(i64 144, ptr nonnull %2) #24
  ret i64 %.0
}